; Function Attrs: nounwind uwtable
define internal void @cff_free_glyph_data(ptr nocapture noundef readonly %0, ptr noundef %1, i64 noundef %2) #4 {
  %4 = alloca %struct.FT_Data_, align 8
  %5 = getelementptr inbounds i8, ptr %0, i64 240
  %6 = load ptr, ptr %5, align 8
  %7 = getelementptr inbounds i8, ptr %6, i64 104
  %8 = load ptr, ptr %7, align 8
  %.not = icmp eq ptr %8, null
  br i1 %.not, label %18, label %9

9:                                                ; preds = %3
  %10 = load ptr, ptr %1, align 8
  store ptr %10, ptr %4, align 8
  %11 = trunc i64 %2 to i32
  %12 = getelementptr inbounds i8, ptr %4, i64 8
  store i32 %11, ptr %12, align 8
  %13 = load ptr, ptr %8, align 8
  %14 = getelementptr inbounds i8, ptr %13, i64 8
  %15 = load ptr, ptr %14, align 8
  %16 = getelementptr inbounds i8, ptr %8, i64 8
  %17 = load ptr, ptr %16, align 8
  call void %15(ptr noundef %17, ptr noundef nonnull %4) #20
  br label %cff_index_forget_element.exit

18:                                               ; preds = %3
  %19 = getelementptr inbounds i8, ptr %0, i64 1168
  %20 = load ptr, ptr %19, align 8
  %21 = getelementptr inbounds i8, ptr %20, i64 1392
  %22 = load ptr, ptr %21, align 8
  %23 = icmp eq ptr %22, null
  br i1 %23, label %24, label %cff_index_forget_element.exit

24:                                               ; preds = %18
  %25 = getelementptr inbounds i8, ptr %20, i64 1336
  %26 = load ptr, ptr %25, align 8
  tail call void @FT_Stream_ReleaseFrame(ptr noundef %26, ptr noundef %1) #20
  br label %cff_index_forget_element.exit

cff_index_forget_element.exit:                    ; preds = %24, %18, %9
  ret void
}